target datalayout = "e-m:e-p270:32:32-p271:32:32-p272:64:64-i64:64-i128:128-f80:128-n8:16:32:64-S128"
target triple = "x86_64-pc-linux-gnu"

%struct.ZSTD_inBuffer_s = type { ptr, i64, i64 }
%"class.rocksdb::ZSTDStreamingCompress" = type { %"class.rocksdb::StreamingCompress", ptr, %struct.ZSTD_inBuffer_s }
%"class.rocksdb::StreamingCompress" = type { ptr, i8, [7 x i8], %"struct.rocksdb::CompressionOptions", i32, i64 }
%"struct.rocksdb::CompressionOptions" = type <{ i32, i32, i32, i32, i32, i32, i8, [7 x i8], i64, i8, [3 x i8], i32, i8, [7 x i8] }>
%struct.ZSTD_outBuffer_s = type { ptr, i64, i64 }

; Function Attrs: mustprogress uwtable
define void @_ZN7rocksdb21ZSTDStreamingCompress5ResetEv(ptr noundef nonnull align 8 dereferenceable(120) %0) unnamed_addr #0 align 2 {
  %2 = alloca ptr, align 8
  %3 = alloca %struct.ZSTD_inBuffer_s, align 8
  store ptr %0, ptr %2, align 8, !tbaa !15
  %4 = load ptr, ptr %2, align 8
  %5 = getelementptr inbounds nuw %"class.rocksdb::ZSTDStreamingCompress", ptr %4, i32 0, i32 1
  %6 = load ptr, ptr %5, align 8, !tbaa !19
  %7 = call i64 @ZSTD_CCtx_reset(ptr noundef %6, i32 noundef 1)
  call void @llvm.lifetime.start.p0(i64 24, ptr %3) #13
  call void @llvm.memset.p0.i64(ptr align 8 %3, i8 0, i64 24, i1 false)
  %8 = getelementptr inbounds nuw %"class.rocksdb::ZSTDStreamingCompress", ptr %4, i32 0, i32 2
  call void @llvm.memcpy.p0.p0.i64(ptr align 8 %8, ptr align 8 %3, i64 24, i1 false), !tbaa.struct !26
  call void @llvm.lifetime.end.p0(i64 24, ptr %3) #13
  ret void
}

; Function Attrs: mustprogress uwtable
define noundef i32 @_ZN7rocksdb21ZSTDStreamingCompress8CompressEPKcmPcPm(ptr noundef nonnull align 8 dereferenceable(120) %0, ptr noundef %1, i64 noundef %2, ptr noundef %3, ptr noundef %4) unnamed_addr #0 align 2 {
  %6 = alloca i32, align 4
  %7 = alloca ptr, align 8
  %8 = alloca ptr, align 8
  %9 = alloca i64, align 8
  %10 = alloca ptr, align 8
  %11 = alloca ptr, align 8
  %12 = alloca %struct.ZSTD_inBuffer_s, align 8
  %13 = alloca %struct.ZSTD_outBuffer_s, align 8
  %14 = alloca i64, align 8
  %15 = alloca i32, align 4
  store ptr %0, ptr %7, align 8, !tbaa !15
  store ptr %1, ptr %8, align 8, !tbaa !34
  store i64 %2, ptr %9, align 8, !tbaa !13
  store ptr %3, ptr %10, align 8, !tbaa !34
  store ptr %4, ptr %11, align 8, !tbaa !36
  %16 = load ptr, ptr %7, align 8
  %17 = load ptr, ptr %11, align 8, !tbaa !36
  store i64 0, ptr %17, align 8, !tbaa !13
  %18 = load i64, ptr %9, align 8, !tbaa !13
  %19 = icmp eq i64 %18, 0
  br i1 %19, label %20, label %21

20:                                               ; preds = %5
  store i32 0, ptr %6, align 4
  br label %69

21:                                               ; preds = %5
  %22 = getelementptr inbounds nuw %"class.rocksdb::ZSTDStreamingCompress", ptr %16, i32 0, i32 2
  %23 = getelementptr inbounds nuw %struct.ZSTD_inBuffer_s, ptr %22, i32 0, i32 0
  %24 = load ptr, ptr %23, align 8, !tbaa !38
  %25 = icmp eq ptr %24, null
  br i1 %25, label %32, label %26

26:                                               ; preds = %21
  %27 = getelementptr inbounds nuw %"class.rocksdb::ZSTDStreamingCompress", ptr %16, i32 0, i32 2
  %28 = getelementptr inbounds nuw %struct.ZSTD_inBuffer_s, ptr %27, i32 0, i32 0
  %29 = load ptr, ptr %28, align 8, !tbaa !38
  %30 = load ptr, ptr %8, align 8, !tbaa !34
  %31 = icmp ne ptr %29, %30
  br i1 %31, label %32, label %39

32:                                               ; preds = %26, %21
  call void @llvm.lifetime.start.p0(i64 24, ptr %12) #13
  %33 = getelementptr inbounds nuw %struct.ZSTD_inBuffer_s, ptr %12, i32 0, i32 0
  %34 = load ptr, ptr %8, align 8, !tbaa !34
  store ptr %34, ptr %33, align 8, !tbaa !39
  %35 = getelementptr inbounds nuw %struct.ZSTD_inBuffer_s, ptr %12, i32 0, i32 1
  %36 = load i64, ptr %9, align 8, !tbaa !13
  store i64 %36, ptr %35, align 8, !tbaa !40
  %37 = getelementptr inbounds nuw %struct.ZSTD_inBuffer_s, ptr %12, i32 0, i32 2
  store i64 0, ptr %37, align 8, !tbaa !41
  %38 = getelementptr inbounds nuw %"class.rocksdb::ZSTDStreamingCompress", ptr %16, i32 0, i32 2
  call void @llvm.memcpy.p0.p0.i64(ptr align 8 %38, ptr align 8 %12, i64 24, i1 false), !tbaa.struct !26
  call void @llvm.lifetime.end.p0(i64 24, ptr %12) #13
  br label %47

39:                                               ; preds = %26
  %40 = getelementptr inbounds nuw %"class.rocksdb::ZSTDStreamingCompress", ptr %16, i32 0, i32 2
  %41 = getelementptr inbounds nuw %struct.ZSTD_inBuffer_s, ptr %40, i32 0, i32 0
  %42 = load ptr, ptr %41, align 8, !tbaa !38
  %43 = load ptr, ptr %8, align 8, !tbaa !34
  %44 = icmp eq ptr %42, %43
  br i1 %44, label %45, label %46

45:                                               ; preds = %39
  br label %46

46:                                               ; preds = %45, %39
  br label %47

47:                                               ; preds = %46, %32
  call void @llvm.lifetime.start.p0(i64 24, ptr %13) #13
  %48 = getelementptr inbounds nuw %struct.ZSTD_outBuffer_s, ptr %13, i32 0, i32 0
  %49 = load ptr, ptr %10, align 8, !tbaa !34
  store ptr %49, ptr %48, align 8, !tbaa !42
  %50 = getelementptr inbounds nuw %struct.ZSTD_outBuffer_s, ptr %13, i32 0, i32 1
  %51 = getelementptr inbounds nuw %"class.rocksdb::StreamingCompress", ptr %16, i32 0, i32 5
  %52 = load i64, ptr %51, align 8, !tbaa !44
  store i64 %52, ptr %50, align 8, !tbaa !45
  %53 = getelementptr inbounds nuw %struct.ZSTD_outBuffer_s, ptr %13, i32 0, i32 2
  store i64 0, ptr %53, align 8, !tbaa !46
  call void @llvm.lifetime.start.p0(i64 8, ptr %14) #13
  %54 = getelementptr inbounds nuw %"class.rocksdb::ZSTDStreamingCompress", ptr %16, i32 0, i32 1
  %55 = load ptr, ptr %54, align 8, !tbaa !19
  %56 = getelementptr inbounds nuw %"class.rocksdb::ZSTDStreamingCompress", ptr %16, i32 0, i32 2
  %57 = call i64 @ZSTD_compressStream2(ptr noundef %55, ptr noundef %13, ptr noundef %56, i32 noundef 2)
  store i64 %57, ptr %14, align 8, !tbaa !13
  %58 = load i64, ptr %14, align 8, !tbaa !13
  %59 = call i32 @ZSTD_isError(i64 noundef %58)
  %60 = icmp ne i32 %59, 0
  br i1 %60, label %61, label %62

61:                                               ; preds = %47
  call void @_ZN7rocksdb21ZSTDStreamingCompress5ResetEv(ptr noundef nonnull align 8 dereferenceable(120) %16)
  store i32 -1, ptr %6, align 4
  store i32 1, ptr %15, align 4
  br label %68

62:                                               ; preds = %47
  %63 = getelementptr inbounds nuw %struct.ZSTD_outBuffer_s, ptr %13, i32 0, i32 2
  %64 = load i64, ptr %63, align 8, !tbaa !46
  %65 = load ptr, ptr %11, align 8, !tbaa !36
  store i64 %64, ptr %65, align 8, !tbaa !13
  %66 = load i64, ptr %14, align 8, !tbaa !13
  %67 = trunc i64 %66 to i32
  store i32 %67, ptr %6, align 4
  store i32 1, ptr %15, align 4
  br label %68

68:                                               ; preds = %62, %61
  call void @llvm.lifetime.end.p0(i64 8, ptr %14) #13
  call void @llvm.lifetime.end.p0(i64 24, ptr %13) #13
  br label %69

69:                                               ; preds = %68, %20
  %70 = load i32, ptr %6, align 4
  ret i32 %70
}