; Function Attrs: mustprogress uwtable
define noundef i32 @_ZN7rocksdb21ZSTDStreamingCompress8CompressEPKcmPcPm(ptr noundef nonnull align 8 dereferenceable(120) %0, ptr noundef %1, i64 noundef %2, ptr noundef %3, ptr noundef writeonly captures(none) initializes((0, 8)) %4) unnamed_addr #0 align 2 {
  %6 = alloca %struct.ZSTD_outBuffer_s, align 8
  store i64 0, ptr %4, align 8, !tbaa !16
  %7 = icmp eq i64 %2, 0
  br i1 %7, label %29, label %8

8:                                                ; preds = %5
  %9 = getelementptr inbounds nuw i8, ptr %0, i64 96
  %10 = load ptr, ptr %9, align 8, !tbaa !33
  %11 = icmp ne ptr %10, null
  %.not = icmp eq ptr %10, %1
  %or.cond = and i1 %11, %.not
  br i1 %or.cond, label %13, label %12

12:                                               ; preds = %8
  store ptr %1, ptr %9, align 8, !tbaa !34
  %.sroa.4.0..sroa_idx = getelementptr inbounds nuw i8, ptr %0, i64 104
  store i64 %2, ptr %.sroa.4.0..sroa_idx, align 8, !tbaa !16
  %.sroa.5.0..sroa_idx = getelementptr inbounds nuw i8, ptr %0, i64 112
  store i64 0, ptr %.sroa.5.0..sroa_idx, align 8, !tbaa !16
  br label %13

13:                                               ; preds = %8, %12
  call void @llvm.lifetime.start.p0(i64 24, ptr nonnull %6) #12
  store ptr %3, ptr %6, align 8, !tbaa !35
  %14 = getelementptr inbounds nuw i8, ptr %6, i64 8
  %15 = getelementptr inbounds nuw i8, ptr %0, i64 80
  %16 = load i64, ptr %15, align 8, !tbaa !18
  store i64 %16, ptr %14, align 8, !tbaa !37
  %17 = getelementptr inbounds nuw i8, ptr %6, i64 16
  store i64 0, ptr %17, align 8, !tbaa !38
  %18 = getelementptr inbounds nuw i8, ptr %0, i64 88
  %19 = load ptr, ptr %18, align 8, !tbaa !21
  %20 = call i64 @ZSTD_compressStream2(ptr noundef %19, ptr noundef nonnull %6, ptr noundef nonnull %9, i32 noundef 2)
  %21 = call i32 @ZSTD_isError(i64 noundef %20)
  %.not13 = icmp eq i32 %21, 0
  br i1 %.not13, label %25, label %22

22:                                               ; preds = %13
  %23 = load ptr, ptr %18, align 8, !tbaa !21
  %24 = call i64 @ZSTD_CCtx_reset(ptr noundef %23, i32 noundef 1)
  call void @llvm.memset.p0.i64(ptr noundef nonnull align 8 dereferenceable(24) %9, i8 0, i64 24, i1 false)
  br label %28

25:                                               ; preds = %13
  %26 = load i64, ptr %17, align 8, !tbaa !38
  store i64 %26, ptr %4, align 8, !tbaa !16
  %27 = trunc i64 %20 to i32
  br label %28

28:                                               ; preds = %25, %22
  %.1 = phi i32 [ -1, %22 ], [ %27, %25 ]
  call void @llvm.lifetime.end.p0(i64 24, ptr nonnull %6) #12
  br label %29

29:                                               ; preds = %5, %28
  %.0 = phi i32 [ %.1, %28 ], [ 0, %5 ]
  ret i32 %.0
}